target datalayout = "e-m:e-p270:32:32-p271:32:32-p272:64:64-i64:64-i128:128-f80:128-n8:16:32:64-S128"
target triple = "x86_64-pc-linux-gnu"

%struct.ident_t = type { i32, i32, i32, i32, ptr }

@2 = private unnamed_addr constant %struct.ident_t { i32 0, i32 2, i32 0, i32 22, ptr @0 }, align 8

; Function Attrs: mustprogress nounwind uwtable
define void @_ZN5faiss22pairwise_indexed_L2sqrEmmPKfPKlS1_S3_Pf(i64 noundef %0, i64 noundef %1, ptr noundef %2, ptr noundef %3, ptr noundef %4, ptr noundef %5, ptr noundef %6) #0 {
  %8 = alloca i64, align 8
  %9 = alloca i64, align 8
  %10 = alloca ptr, align 8
  %11 = alloca ptr, align 8
  %12 = alloca ptr, align 8
  %13 = alloca ptr, align 8
  %14 = alloca ptr, align 8
  %15 = alloca i32, align 4
  %16 = alloca i32, align 4
  %17 = call i32 @__kmpc_global_thread_num(ptr @2)
  store i64 %0, ptr %8, align 8
  store i64 %1, ptr %9, align 8
  store ptr %2, ptr %10, align 8
  store ptr %3, ptr %11, align 8
  store ptr %4, ptr %12, align 8
  store ptr %5, ptr %13, align 8
  store ptr %6, ptr %14, align 8
  %18 = load i64, ptr %9, align 8
  %19 = icmp ugt i64 %18, 1
  br i1 %19, label %20, label %21

20:                                               ; preds = %7
  call void (ptr, i32, ptr, ...) @__kmpc_fork_call(ptr @2, i32 7, ptr @_ZN5faiss22pairwise_indexed_L2sqrEmmPKfPKlS1_S3_Pf.omp_outlined, ptr %9, ptr %11, ptr %13, ptr %14, ptr %10, ptr %8, ptr %12)
  br label %22

21:                                               ; preds = %7
  call void @__kmpc_serialized_parallel(ptr @2, i32 %17)
  store i32 %17, ptr %15, align 4
  store i32 0, ptr %16, align 4
  call void @_ZN5faiss22pairwise_indexed_L2sqrEmmPKfPKlS1_S3_Pf.omp_outlined(ptr %15, ptr %16, ptr %9, ptr %11, ptr %13, ptr %14, ptr %10, ptr %8, ptr %12) #2
  call void @__kmpc_end_serialized_parallel(ptr @2, i32 %17)
  br label %22

22:                                               ; preds = %21, %20
  ret void
}